; Function Attrs: mustprogress nofree norecurse nosync nounwind willreturn memory(argmem: read) uwtable
define dso_local range(i32 0, 15) i32 @LLVMGetLinkage(ptr noundef readonly captures(none) %0) local_unnamed_addr #11 {
switch.lookup:
  %1 = getelementptr inbounds nuw i8, ptr %0, i64 32
  %2 = load i32, ptr %1, align 8
  %3 = and i32 %2, 15
  %4 = zext nneg i32 %3 to i64
  %switch.gep = getelementptr inbounds nuw [11 x i32], ptr @switch.table.LLVMGetLinkage, i64 0, i64 %4
  %switch.load = load i32, ptr %switch.gep, align 4
  ret i32 %switch.load
}